target datalayout = "e-m:e-p270:32:32-p271:32:32-p272:64:64-i64:64-i128:128-f80:128-n8:16:32:64-S128"
target triple = "x86_64-pc-linux-gnu"

%"class.ue2::RoseInstruction" = type { ptr }
%"struct.std::array.129" = type { [32 x i8] }
%"struct.std::array.132" = type { [64 x i8] }
%"class.ue2::RoseInstrCheckMultipathShufti32x8" = type { %"class.ue2::RoseInstrBaseOneTarget.248", %"struct.std::array.129", %"struct.std::array.129", %"struct.std::array.132", %"struct.std::array.132", i32, i32, i32, i32, i32, ptr }
%"class.ue2::RoseInstrBaseOneTarget.248" = type { %"class.ue2::RoseInstrBase.249" }
%"class.ue2::RoseInstrBase.249" = type { %"class.ue2::RoseInstruction" }
%struct.ROSE_STRUCT_CHECK_MULTIPATH_SHUFTI_32x8 = type { i8, [16 x i8], [16 x i8], [32 x i8], [32 x i8], i32, i32, i32, i32, i32, i32 }

@_ZTIN3ue218ResourceLimitErrorE = external constant ptr

; Function Attrs: mustprogress nounwind uwtable
define linkonce_odr dso_local noundef ptr @_ZNSt11__copy_moveILb0ELb1ESt26random_access_iterator_tagE8__copy_mIhEEPT_PKS3_S6_S4_(ptr noundef %0, ptr noundef %1, ptr noundef %2) #1 comdat align 2 {
  %4 = alloca ptr, align 8
  %5 = alloca ptr, align 8
  %6 = alloca ptr, align 8
  %7 = alloca i64, align 8
  store ptr %0, ptr %4, align 8
  store ptr %1, ptr %5, align 8
  store ptr %2, ptr %6, align 8
  call void @llvm.lifetime.start.p0(i64 8, ptr %7) #18
  %8 = load ptr, ptr %5, align 8
  %9 = load ptr, ptr %4, align 8
  %10 = ptrtoint ptr %8 to i64
  %11 = ptrtoint ptr %9 to i64
  %12 = sub i64 %10, %11
  store i64 %12, ptr %7, align 8
  %13 = load i64, ptr %7, align 8
  %14 = icmp ne i64 %13, 0
  br i1 %14, label %15, label %20

15:                                               ; preds = %3
  %16 = load ptr, ptr %6, align 8
  %17 = load ptr, ptr %4, align 8
  %18 = load i64, ptr %7, align 8
  %19 = mul i64 1, %18
  call void @llvm.memmove.p0.p0.i64(ptr align 1 %16, ptr align 1 %17, i64 %19, i1 false)
  br label %20

20:                                               ; preds = %15, %3
  %21 = load ptr, ptr %6, align 8
  %22 = load i64, ptr %7, align 8
  %23 = getelementptr inbounds i8, ptr %21, i64 %22
  call void @llvm.lifetime.end.p0(i64 8, ptr %7) #18
  ret ptr %23
}

; Function Attrs: mustprogress nounwind uwtable
define linkonce_odr dso_local noundef ptr @_ZNSt14__array_traitsIhLm64EE6_S_ptrERA64_Kh(ptr noundef nonnull align 1 dereferenceable(64) %0) #1 comdat align 2 {
  %2 = alloca ptr, align 8
  store ptr %0, ptr %2, align 8
  %3 = load ptr, ptr %2, align 8
  %4 = getelementptr inbounds [64 x i8], ptr %3, i64 0, i64 0
  ret ptr %4
}

; Function Attrs: inlinehint mustprogress uwtable
define linkonce_odr dso_local noundef ptr @_ZSt14__copy_move_a2ILb0EPKhPhET1_T0_S4_S3_(ptr noundef %0, ptr noundef %1, ptr noundef %2) #9 comdat {
  %4 = alloca ptr, align 8
  %5 = alloca ptr, align 8
  %6 = alloca ptr, align 8
  store ptr %0, ptr %4, align 8
  store ptr %1, ptr %5, align 8
  store ptr %2, ptr %6, align 8
  %7 = load ptr, ptr %4, align 8
  %8 = load ptr, ptr %5, align 8
  %9 = load ptr, ptr %6, align 8
  %10 = call noundef ptr @_ZNSt11__copy_moveILb0ELb1ESt26random_access_iterator_tagE8__copy_mIhEEPT_PKS3_S6_S4_(ptr noundef %7, ptr noundef %8, ptr noundef %9)
  ret ptr %10
}

; Function Attrs: mustprogress nounwind uwtable
define linkonce_odr dso_local noundef ptr @_ZNSt14__array_traitsIhLm32EE6_S_ptrERA32_Kh(ptr noundef nonnull align 1 dereferenceable(32) %0) #1 comdat align 2 {
  %2 = alloca ptr, align 8
  store ptr %0, ptr %2, align 8
  %3 = load ptr, ptr %2, align 8
  %4 = getelementptr inbounds [32 x i8], ptr %3, i64 0, i64 0
  ret ptr %4
}

; Function Attrs: mustprogress nounwind uwtable
define linkonce_odr dso_local noundef ptr @_ZNKSt5arrayIhLm64EE4dataEv(ptr noundef nonnull align 1 dereferenceable(64) %0) #1 comdat align 2 {
  %2 = alloca ptr, align 8
  store ptr %0, ptr %2, align 8
  %3 = load ptr, ptr %2, align 8
  %4 = getelementptr inbounds nuw %"struct.std::array.132", ptr %3, i32 0, i32 0
  %5 = call noundef ptr @_ZNSt14__array_traitsIhLm64EE6_S_ptrERA64_Kh(ptr noundef nonnull align 1 dereferenceable(64) %4) #18
  ret ptr %5
}

; Function Attrs: inlinehint mustprogress nounwind uwtable
define linkonce_odr dso_local noundef ptr @_ZSt12__niter_wrapIPhET_RKS1_S1_(ptr noundef nonnull align 8 dereferenceable(8) %0, ptr noundef %1) #8 comdat {
  %3 = alloca ptr, align 8
  %4 = alloca ptr, align 8
  store ptr %0, ptr %3, align 8
  store ptr %1, ptr %4, align 8
  %5 = load ptr, ptr %4, align 8
  ret ptr %5
}

; Function Attrs: inlinehint mustprogress uwtable
define linkonce_odr dso_local noundef ptr @_ZSt14__copy_move_a1ILb0EPKhPhET1_T0_S4_S3_(ptr noundef %0, ptr noundef %1, ptr noundef %2) #9 comdat {
  %4 = alloca ptr, align 8
  %5 = alloca ptr, align 8
  %6 = alloca ptr, align 8
  store ptr %0, ptr %4, align 8
  store ptr %1, ptr %5, align 8
  store ptr %2, ptr %6, align 8
  %7 = load ptr, ptr %4, align 8
  %8 = load ptr, ptr %5, align 8
  %9 = load ptr, ptr %6, align 8
  %10 = call noundef ptr @_ZSt14__copy_move_a2ILb0EPKhPhET1_T0_S4_S3_(ptr noundef %7, ptr noundef %8, ptr noundef %9)
  ret ptr %10
}

; Function Attrs: inlinehint mustprogress nounwind uwtable
define linkonce_odr dso_local noundef ptr @_ZSt12__niter_baseIPhET_S1_(ptr noundef %0) #8 comdat {
  %2 = alloca ptr, align 8
  store ptr %0, ptr %2, align 8
  %3 = load ptr, ptr %2, align 8
  ret ptr %3
}

; Function Attrs: inlinehint mustprogress nounwind uwtable
define linkonce_odr dso_local noundef ptr @_ZSt12__niter_baseIPKhET_S2_(ptr noundef %0) #8 comdat {
  %2 = alloca ptr, align 8
  store ptr %0, ptr %2, align 8
  %3 = load ptr, ptr %2, align 8
  ret ptr %3
}

; Function Attrs: mustprogress nounwind uwtable
define linkonce_odr dso_local noundef ptr @_ZNKSt5arrayIhLm32EE4dataEv(ptr noundef nonnull align 1 dereferenceable(32) %0) #1 comdat align 2 {
  %2 = alloca ptr, align 8
  store ptr %0, ptr %2, align 8
  %3 = load ptr, ptr %2, align 8
  %4 = getelementptr inbounds nuw %"struct.std::array.129", ptr %3, i32 0, i32 0
  %5 = call noundef ptr @_ZNSt14__array_traitsIhLm32EE6_S_ptrERA32_Kh(ptr noundef nonnull align 1 dereferenceable(32) %4) #18
  ret ptr %5
}

; Function Attrs: mustprogress uwtable
define linkonce_odr hidden noundef zeroext i8 @_ZN3ue211verify_castIh19RoseInstructionCodeEET_T0_(i32 noundef %0) #5 comdat personality ptr @__gxx_personality_v0 {
  %2 = alloca i32, align 4
  %3 = alloca i8, align 1
  %4 = alloca ptr, align 8
  %5 = alloca i32, align 4
  store i32 %0, ptr %2, align 4
  call void @llvm.lifetime.start.p0(i64 1, ptr %3) #18
  %6 = load i32, ptr %2, align 4
  %7 = trunc i32 %6 to i8
  store i8 %7, ptr %3, align 1
  %8 = load i8, ptr %3, align 1
  %9 = zext i8 %8 to i32
  %10 = load i32, ptr %2, align 4
  %11 = icmp ne i32 %9, %10
  br i1 %11, label %12, label %19

12:                                               ; preds = %1
  %13 = call ptr @__cxa_allocate_exception(i64 48) #18
  invoke void @_ZN3ue218ResourceLimitErrorC1Ev(ptr noundef nonnull align 8 dereferenceable(48) %13)
          to label %14 unwind label %15

14:                                               ; preds = %12
  call void @__cxa_throw(ptr %13, ptr @_ZTIN3ue218ResourceLimitErrorE, ptr @_ZN3ue218ResourceLimitErrorD1Ev) #20
  unreachable

15:                                               ; preds = %12
  %16 = landingpad { ptr, i32 }
          cleanup
  %17 = extractvalue { ptr, i32 } %16, 0
  store ptr %17, ptr %4, align 8
  %18 = extractvalue { ptr, i32 } %16, 1
  store i32 %18, ptr %5, align 4
  call void @__cxa_free_exception(ptr %13) #18
  call void @llvm.lifetime.end.p0(i64 1, ptr %3) #18
  br label %21

19:                                               ; preds = %1
  %20 = load i8, ptr %3, align 1
  call void @llvm.lifetime.end.p0(i64 1, ptr %3) #18
  ret i8 %20

21:                                               ; preds = %15
  %22 = load ptr, ptr %4, align 8
  %23 = load i32, ptr %5, align 4
  %24 = insertvalue { ptr, i32 } poison, ptr %22, 0
  %25 = insertvalue { ptr, i32 } %24, i32 %23, 1
  resume { ptr, i32 } %25
}

; Function Attrs: mustprogress nounwind uwtable
define linkonce_odr dso_local noundef ptr @_ZNKSt5arrayIhLm64EE5beginEv(ptr noundef nonnull align 1 dereferenceable(64) %0) #1 comdat align 2 {
  %2 = alloca ptr, align 8
  store ptr %0, ptr %2, align 8
  %3 = load ptr, ptr %2, align 8
  %4 = call noundef ptr @_ZNKSt5arrayIhLm64EE4dataEv(ptr noundef nonnull align 1 dereferenceable(64) %3) #18
  ret ptr %4
}

; Function Attrs: inlinehint mustprogress uwtable
define linkonce_odr dso_local noundef ptr @_ZSt13__copy_move_aILb0EPKhPhET1_T0_S4_S3_(ptr noundef %0, ptr noundef %1, ptr noundef %2) #9 comdat {
  %4 = alloca ptr, align 8
  %5 = alloca ptr, align 8
  %6 = alloca ptr, align 8
  store ptr %0, ptr %4, align 8
  store ptr %1, ptr %5, align 8
  store ptr %2, ptr %6, align 8
  %7 = load ptr, ptr %4, align 8
  %8 = call noundef ptr @_ZSt12__niter_baseIPKhET_S2_(ptr noundef %7) #18
  %9 = load ptr, ptr %5, align 8
  %10 = call noundef ptr @_ZSt12__niter_baseIPKhET_S2_(ptr noundef %9) #18
  %11 = load ptr, ptr %6, align 8
  %12 = call noundef ptr @_ZSt12__niter_baseIPhET_S1_(ptr noundef %11) #18
  %13 = call noundef ptr @_ZSt14__copy_move_a1ILb0EPKhPhET1_T0_S4_S3_(ptr noundef %8, ptr noundef %10, ptr noundef %12)
  %14 = call noundef ptr @_ZSt12__niter_wrapIPhET_RKS1_S1_(ptr noundef nonnull align 8 dereferenceable(8) %6, ptr noundef %13)
  ret ptr %14
}

; Function Attrs: inlinehint mustprogress nounwind uwtable
define linkonce_odr dso_local noundef ptr @_ZSt12__miter_baseIPKhET_S2_(ptr noundef %0) #8 comdat {
  %2 = alloca ptr, align 8
  store ptr %0, ptr %2, align 8
  %3 = load ptr, ptr %2, align 8
  ret ptr %3
}

; Function Attrs: mustprogress nounwind uwtable
define linkonce_odr dso_local noundef ptr @_ZNKSt5arrayIhLm32EE5beginEv(ptr noundef nonnull align 1 dereferenceable(32) %0) #1 comdat align 2 {
  %2 = alloca ptr, align 8
  store ptr %0, ptr %2, align 8
  %3 = load ptr, ptr %2, align 8
  %4 = call noundef ptr @_ZNKSt5arrayIhLm32EE4dataEv(ptr noundef nonnull align 1 dereferenceable(32) %3) #18
  ret ptr %4
}

; Function Attrs: mustprogress uwtable
define linkonce_odr hidden noundef zeroext i8 @_ZN3ue29verify_u8I19RoseInstructionCodeEEhT_(i32 noundef %0) #5 comdat {
  %2 = alloca i32, align 4
  store i32 %0, ptr %2, align 4
  %3 = load i32, ptr %2, align 4
  %4 = call noundef zeroext i8 @_ZN3ue211verify_castIh19RoseInstructionCodeEET_T0_(i32 noundef %3)
  ret i8 %4
}

; Function Attrs: inlinehint mustprogress nounwind uwtable
define linkonce_odr dso_local noundef ptr @_ZSt5beginISt5arrayIhLm64EEEDTcldtfp_5beginEERKT_(ptr noundef nonnull align 1 dereferenceable(64) %0) #8 comdat {
  %2 = alloca ptr, align 8
  store ptr %0, ptr %2, align 8
  %3 = load ptr, ptr %2, align 8
  %4 = call noundef ptr @_ZNKSt5arrayIhLm64EE5beginEv(ptr noundef nonnull align 1 dereferenceable(64) %3) #18
  ret ptr %4
}

; Function Attrs: inlinehint mustprogress uwtable
define linkonce_odr dso_local noundef ptr @_ZSt4copyIPKhPhET0_T_S4_S3_(ptr noundef %0, ptr noundef %1, ptr noundef %2) #9 comdat {
  %4 = alloca ptr, align 8
  %5 = alloca ptr, align 8
  %6 = alloca ptr, align 8
  store ptr %0, ptr %4, align 8
  store ptr %1, ptr %5, align 8
  store ptr %2, ptr %6, align 8
  %7 = load ptr, ptr %4, align 8
  %8 = call noundef ptr @_ZSt12__miter_baseIPKhET_S2_(ptr noundef %7)
  %9 = load ptr, ptr %5, align 8
  %10 = call noundef ptr @_ZSt12__miter_baseIPKhET_S2_(ptr noundef %9)
  %11 = load ptr, ptr %6, align 8
  %12 = call noundef ptr @_ZSt13__copy_move_aILb0EPKhPhET1_T0_S4_S3_(ptr noundef %8, ptr noundef %10, ptr noundef %11)
  ret ptr %12
}

; Function Attrs: inlinehint mustprogress nounwind uwtable
define linkonce_odr dso_local noundef ptr @_ZSt5beginISt5arrayIhLm32EEEDTcldtfp_5beginEERKT_(ptr noundef nonnull align 1 dereferenceable(32) %0) #8 comdat {
  %2 = alloca ptr, align 8
  store ptr %0, ptr %2, align 8
  %3 = load ptr, ptr %2, align 8
  %4 = call noundef ptr @_ZNKSt5arrayIhLm32EE5beginEv(ptr noundef nonnull align 1 dereferenceable(32) %3) #18
  ret ptr %4
}

; Function Attrs: mustprogress uwtable
define linkonce_odr hidden void @_ZNK3ue213RoseInstrBaseIL19RoseInstructionCode58E39ROSE_STRUCT_CHECK_MULTIPATH_SHUFTI_32x8NS_33RoseInstrCheckMultipathShufti32x8EE5writeEPvRNS_14RoseEngineBlobERKSt13unordered_mapIPKNS_15RoseInstructionEjSt4hashISB_ESt8equal_toISB_ESaISt4pairIKSB_jEEE(ptr noundef nonnull align 8 dereferenceable(8) %0, ptr noundef %1, ptr noundef nonnull align 8 dereferenceable(256) %2, ptr noundef nonnull align 8 dereferenceable(56) %3) unnamed_addr #5 comdat align 2 {
  %5 = alloca ptr, align 8
  %6 = alloca ptr, align 8
  %7 = alloca ptr, align 8
  %8 = alloca ptr, align 8
  %9 = alloca ptr, align 8
  store ptr %0, ptr %5, align 8
  store ptr %1, ptr %6, align 8
  store ptr %2, ptr %7, align 8
  store ptr %3, ptr %8, align 8
  call void @llvm.lifetime.start.p0(i64 8, ptr %9) #18
  %10 = load ptr, ptr %6, align 8
  store ptr %10, ptr %9, align 8
  %11 = load ptr, ptr %9, align 8
  call void @llvm.memset.p0.i64(ptr align 4 %11, i8 0, i64 124, i1 false)
  %12 = call noundef zeroext i8 @_ZN3ue29verify_u8I19RoseInstructionCodeEEhT_(i32 noundef 58)
  %13 = load ptr, ptr %9, align 8
  %14 = getelementptr inbounds nuw %struct.ROSE_STRUCT_CHECK_MULTIPATH_SHUFTI_32x8, ptr %13, i32 0, i32 0
  store i8 %12, ptr %14, align 4
  call void @llvm.lifetime.end.p0(i64 8, ptr %9) #18
  ret void
}

; Function Attrs: mustprogress uwtable
define hidden void @_ZNK3ue233RoseInstrCheckMultipathShufti32x85writeEPvRNS_14RoseEngineBlobERKSt13unordered_mapIPKNS_15RoseInstructionEjSt4hashIS7_ESt8equal_toIS7_ESaISt4pairIKS7_jEEE(ptr noundef nonnull align 8 dereferenceable(232) %0, ptr noundef %1, ptr noundef nonnull align 8 dereferenceable(256) %2, ptr noundef nonnull align 8 dereferenceable(56) %3) unnamed_addr #5 align 2 {
  %5 = alloca ptr, align 8
  %6 = alloca ptr, align 8
  %7 = alloca ptr, align 8
  %8 = alloca ptr, align 8
  %9 = alloca ptr, align 8
  store ptr %0, ptr %5, align 8
  store ptr %1, ptr %6, align 8
  store ptr %2, ptr %7, align 8
  store ptr %3, ptr %8, align 8
  %10 = load ptr, ptr %5, align 8
  %11 = load ptr, ptr %6, align 8
  %12 = load ptr, ptr %7, align 8
  %13 = load ptr, ptr %8, align 8
  call void @_ZNK3ue213RoseInstrBaseIL19RoseInstructionCode58E39ROSE_STRUCT_CHECK_MULTIPATH_SHUFTI_32x8NS_33RoseInstrCheckMultipathShufti32x8EE5writeEPvRNS_14RoseEngineBlobERKSt13unordered_mapIPKNS_15RoseInstructionEjSt4hashISB_ESt8equal_toISB_ESaISt4pairIKSB_jEEE(ptr noundef nonnull align 8 dereferenceable(8) %10, ptr noundef %11, ptr noundef nonnull align 8 dereferenceable(256) %12, ptr noundef nonnull align 8 dereferenceable(56) %13)
  call void @llvm.lifetime.start.p0(i64 8, ptr %9) #18
  %14 = load ptr, ptr %6, align 8
  store ptr %14, ptr %9, align 8
  %15 = getelementptr inbounds nuw %"class.ue2::RoseInstrCheckMultipathShufti32x8", ptr %10, i32 0, i32 1
  %16 = call noundef ptr @_ZSt5beginISt5arrayIhLm32EEEDTcldtfp_5beginEERKT_(ptr noundef nonnull align 1 dereferenceable(32) %15)
  %17 = getelementptr inbounds nuw %"class.ue2::RoseInstrCheckMultipathShufti32x8", ptr %10, i32 0, i32 1
  %18 = call noundef ptr @_ZSt5beginISt5arrayIhLm32EEEDTcldtfp_5beginEERKT_(ptr noundef nonnull align 1 dereferenceable(32) %17)
  %19 = getelementptr inbounds i8, ptr %18, i64 16
  %20 = load ptr, ptr %9, align 8
  %21 = getelementptr inbounds nuw %struct.ROSE_STRUCT_CHECK_MULTIPATH_SHUFTI_32x8, ptr %20, i32 0, i32 1
  %22 = getelementptr inbounds [16 x i8], ptr %21, i64 0, i64 0
  %23 = call noundef ptr @_ZSt4copyIPKhPhET0_T_S4_S3_(ptr noundef %16, ptr noundef %19, ptr noundef %22)
  %24 = getelementptr inbounds nuw %"class.ue2::RoseInstrCheckMultipathShufti32x8", ptr %10, i32 0, i32 2
  %25 = call noundef ptr @_ZSt5beginISt5arrayIhLm32EEEDTcldtfp_5beginEERKT_(ptr noundef nonnull align 1 dereferenceable(32) %24)
  %26 = getelementptr inbounds nuw %"class.ue2::RoseInstrCheckMultipathShufti32x8", ptr %10, i32 0, i32 2
  %27 = call noundef ptr @_ZSt5beginISt5arrayIhLm32EEEDTcldtfp_5beginEERKT_(ptr noundef nonnull align 1 dereferenceable(32) %26)
  %28 = getelementptr inbounds i8, ptr %27, i64 16
  %29 = load ptr, ptr %9, align 8
  %30 = getelementptr inbounds nuw %struct.ROSE_STRUCT_CHECK_MULTIPATH_SHUFTI_32x8, ptr %29, i32 0, i32 2
  %31 = getelementptr inbounds [16 x i8], ptr %30, i64 0, i64 0
  %32 = call noundef ptr @_ZSt4copyIPKhPhET0_T_S4_S3_(ptr noundef %25, ptr noundef %28, ptr noundef %31)
  %33 = getelementptr inbounds nuw %"class.ue2::RoseInstrCheckMultipathShufti32x8", ptr %10, i32 0, i32 3
  %34 = call noundef ptr @_ZSt5beginISt5arrayIhLm64EEEDTcldtfp_5beginEERKT_(ptr noundef nonnull align 1 dereferenceable(64) %33)
  %35 = getelementptr inbounds nuw %"class.ue2::RoseInstrCheckMultipathShufti32x8", ptr %10, i32 0, i32 3
  %36 = call noundef ptr @_ZSt5beginISt5arrayIhLm64EEEDTcldtfp_5beginEERKT_(ptr noundef nonnull align 1 dereferenceable(64) %35)
  %37 = getelementptr inbounds i8, ptr %36, i64 32
  %38 = load ptr, ptr %9, align 8
  %39 = getelementptr inbounds nuw %struct.ROSE_STRUCT_CHECK_MULTIPATH_SHUFTI_32x8, ptr %38, i32 0, i32 3
  %40 = getelementptr inbounds [32 x i8], ptr %39, i64 0, i64 0
  %41 = call noundef ptr @_ZSt4copyIPKhPhET0_T_S4_S3_(ptr noundef %34, ptr noundef %37, ptr noundef %40)
  %42 = getelementptr inbounds nuw %"class.ue2::RoseInstrCheckMultipathShufti32x8", ptr %10, i32 0, i32 4
  %43 = call noundef ptr @_ZSt5beginISt5arrayIhLm64EEEDTcldtfp_5beginEERKT_(ptr noundef nonnull align 1 dereferenceable(64) %42)
  %44 = getelementptr inbounds nuw %"class.ue2::RoseInstrCheckMultipathShufti32x8", ptr %10, i32 0, i32 4
  %45 = call noundef ptr @_ZSt5beginISt5arrayIhLm64EEEDTcldtfp_5beginEERKT_(ptr noundef nonnull align 1 dereferenceable(64) %44)
  %46 = getelementptr inbounds i8, ptr %45, i64 32
  %47 = load ptr, ptr %9, align 8
  %48 = getelementptr inbounds nuw %struct.ROSE_STRUCT_CHECK_MULTIPATH_SHUFTI_32x8, ptr %47, i32 0, i32 4
  %49 = getelementptr inbounds [32 x i8], ptr %48, i64 0, i64 0
  %50 = call noundef ptr @_ZSt4copyIPKhPhET0_T_S4_S3_(ptr noundef %43, ptr noundef %46, ptr noundef %49)
  %51 = getelementptr inbounds nuw %"class.ue2::RoseInstrCheckMultipathShufti32x8", ptr %10, i32 0, i32 5
  %52 = load i32, ptr %51, align 8
  %53 = load ptr, ptr %9, align 8
  %54 = getelementptr inbounds nuw %struct.ROSE_STRUCT_CHECK_MULTIPATH_SHUFTI_32x8, ptr %53, i32 0, i32 5
  store i32 %52, ptr %54, align 4
  %55 = getelementptr inbounds nuw %"class.ue2::RoseInstrCheckMultipathShufti32x8", ptr %10, i32 0, i32 6
  %56 = load i32, ptr %55, align 4
  %57 = load ptr, ptr %9, align 8
  %58 = getelementptr inbounds nuw %struct.ROSE_STRUCT_CHECK_MULTIPATH_SHUFTI_32x8, ptr %57, i32 0, i32 6
  store i32 %56, ptr %58, align 4
  %59 = getelementptr inbounds nuw %"class.ue2::RoseInstrCheckMultipathShufti32x8", ptr %10, i32 0, i32 7
  %60 = load i32, ptr %59, align 8
  %61 = load ptr, ptr %9, align 8
  %62 = getelementptr inbounds nuw %struct.ROSE_STRUCT_CHECK_MULTIPATH_SHUFTI_32x8, ptr %61, i32 0, i32 7
  store i32 %60, ptr %62, align 4
  %63 = getelementptr inbounds nuw %"class.ue2::RoseInstrCheckMultipathShufti32x8", ptr %10, i32 0, i32 8
  %64 = load i32, ptr %63, align 4
  %65 = load ptr, ptr %9, align 8
  %66 = getelementptr inbounds nuw %struct.ROSE_STRUCT_CHECK_MULTIPATH_SHUFTI_32x8, ptr %65, i32 0, i32 8
  store i32 %64, ptr %66, align 4
  %67 = getelementptr inbounds nuw %"class.ue2::RoseInstrCheckMultipathShufti32x8", ptr %10, i32 0, i32 9
  %68 = load i32, ptr %67, align 8
  %69 = load ptr, ptr %9, align 8
  %70 = getelementptr inbounds nuw %struct.ROSE_STRUCT_CHECK_MULTIPATH_SHUFTI_32x8, ptr %69, i32 0, i32 9
  store i32 %68, ptr %70, align 4
  %71 = load ptr, ptr %8, align 8
  %72 = getelementptr inbounds nuw %"class.ue2::RoseInstrCheckMultipathShufti32x8", ptr %10, i32 0, i32 10
  %73 = load ptr, ptr %72, align 8
  %74 = call noundef i32 @_ZN3ue2L9calc_jumpERKSt13unordered_mapIPKNS_15RoseInstructionEjSt4hashIS3_ESt8equal_toIS3_ESaISt4pairIKS3_jEEES3_S3_(ptr noundef nonnull align 8 dereferenceable(56) %71, ptr noundef %10, ptr noundef %73)
  %75 = load ptr, ptr %9, align 8
  %76 = getelementptr inbounds nuw %struct.ROSE_STRUCT_CHECK_MULTIPATH_SHUFTI_32x8, ptr %75, i32 0, i32 10
  store i32 %74, ptr %76, align 4
  call void @llvm.lifetime.end.p0(i64 8, ptr %9) #18
  ret void
}