; Function Attrs: mustprogress uwtable
define hidden void @_ZNK3ue233RoseInstrCheckMultipathShufti32x85writeEPvRNS_14RoseEngineBlobERKSt13unordered_mapIPKNS_15RoseInstructionEjSt4hashIS7_ESt8equal_toIS7_ESaISt4pairIKS7_jEEE(ptr noundef nonnull align 8 dereferenceable(232) %0, ptr noundef writeonly captures(none) initializes((0, 124)) %1, ptr nonnull readnone align 8 captures(none) %2, ptr noundef nonnull readonly align 8 captures(none) dereferenceable(56) %3) unnamed_addr #5 align 2 personality ptr @__gxx_personality_v0 {
  tail call void @llvm.memset.p0.i64(ptr noundef nonnull align 4 dereferenceable(124) %1, i8 0, i64 124, i1 false)
  store i8 58, ptr %1, align 4
  %5 = getelementptr inbounds nuw i8, ptr %0, i64 8
  %6 = getelementptr inbounds nuw i8, ptr %1, i64 1
  tail call void @llvm.memmove.p0.p0.i64(ptr noundef nonnull align 1 dereferenceable(16) %6, ptr noundef nonnull align 8 dereferenceable(16) %5, i64 16, i1 false)
  %7 = getelementptr inbounds nuw i8, ptr %0, i64 40
  %8 = getelementptr inbounds nuw i8, ptr %1, i64 17
  tail call void @llvm.memmove.p0.p0.i64(ptr noundef nonnull align 1 dereferenceable(16) %8, ptr noundef nonnull align 8 dereferenceable(16) %7, i64 16, i1 false)
  %9 = getelementptr inbounds nuw i8, ptr %0, i64 72
  %10 = getelementptr inbounds nuw i8, ptr %1, i64 33
  tail call void @llvm.memmove.p0.p0.i64(ptr noundef nonnull align 1 dereferenceable(32) %10, ptr noundef nonnull align 8 dereferenceable(32) %9, i64 32, i1 false)
  %11 = getelementptr inbounds nuw i8, ptr %0, i64 136
  %12 = getelementptr inbounds nuw i8, ptr %1, i64 65
  tail call void @llvm.memmove.p0.p0.i64(ptr noundef nonnull align 1 dereferenceable(32) %12, ptr noundef nonnull align 8 dereferenceable(32) %11, i64 32, i1 false)
  %13 = getelementptr inbounds nuw i8, ptr %0, i64 200
  %14 = load i32, ptr %13, align 8
  %15 = getelementptr inbounds nuw i8, ptr %1, i64 100
  store i32 %14, ptr %15, align 4
  %16 = getelementptr inbounds nuw i8, ptr %0, i64 204
  %17 = load i32, ptr %16, align 4
  %18 = getelementptr inbounds nuw i8, ptr %1, i64 104
  store i32 %17, ptr %18, align 4
  %19 = getelementptr inbounds nuw i8, ptr %0, i64 208
  %20 = load i32, ptr %19, align 8
  %21 = getelementptr inbounds nuw i8, ptr %1, i64 108
  store i32 %20, ptr %21, align 4
  %22 = getelementptr inbounds nuw i8, ptr %0, i64 212
  %23 = load i32, ptr %22, align 4
  %24 = getelementptr inbounds nuw i8, ptr %1, i64 112
  store i32 %23, ptr %24, align 4
  %25 = getelementptr inbounds nuw i8, ptr %0, i64 216
  %26 = load i32, ptr %25, align 8
  %27 = getelementptr inbounds nuw i8, ptr %1, i64 116
  store i32 %26, ptr %27, align 4
  %28 = getelementptr inbounds nuw i8, ptr %0, i64 224
  %29 = load ptr, ptr %28, align 8
  %30 = tail call fastcc noundef i32 @_ZN3ue2L9calc_jumpERKSt13unordered_mapIPKNS_15RoseInstructionEjSt4hashIS3_ESt8equal_toIS3_ESaISt4pairIKS3_jEEES3_S3_(ptr noundef nonnull align 8 dereferenceable(56) %3, ptr noundef %0, ptr noundef %29)
  %31 = getelementptr inbounds nuw i8, ptr %1, i64 120
  store i32 %30, ptr %31, align 4
  ret void
}